; Function Attrs: mustprogress uwtable
define void @_ZNK6casadi6Newton14printIterationERSo(ptr noundef nonnull readonly align 8 captures(none) dereferenceable(1641) %0, ptr noundef nonnull align 8 dereferenceable(8) %1) local_unnamed_addr #4 align 2 {
  %3 = load ptr, ptr %1, align 8, !tbaa !32
  %4 = getelementptr i8, ptr %3, i64 -24
  %5 = load i64, ptr %4, align 8
  %6 = getelementptr inbounds i8, ptr %1, i64 %5
  %7 = getelementptr inbounds nuw i8, ptr %6, i64 16
  store i64 5, ptr %7, align 8, !tbaa !200
  %8 = tail call noundef nonnull align 8 dereferenceable(8) ptr @_ZSt16__ostream_insertIcSt11char_traitsIcEERSt13basic_ostreamIT_T0_ES6_PKS3_l(ptr noundef nonnull align 8 dereferenceable(8) %1, ptr noundef nonnull @.str.41, i64 noundef 4)
  %9 = load ptr, ptr %1, align 8, !tbaa !32
  %10 = getelementptr i8, ptr %9, i64 -24
  %11 = load i64, ptr %10, align 8
  %12 = getelementptr inbounds i8, ptr %1, i64 %11
  %13 = getelementptr inbounds nuw i8, ptr %12, i64 16
  store i64 10, ptr %13, align 8, !tbaa !200
  %14 = tail call noundef nonnull align 8 dereferenceable(8) ptr @_ZSt16__ostream_insertIcSt11char_traitsIcEERSt13basic_ostreamIT_T0_ES6_PKS3_l(ptr noundef nonnull align 8 dereferenceable(8) %1, ptr noundef nonnull @.str.42, i64 noundef 3)
  %15 = load ptr, ptr %1, align 8, !tbaa !32
  %16 = getelementptr i8, ptr %15, i64 -24
  %17 = load i64, ptr %16, align 8
  %18 = getelementptr inbounds i8, ptr %1, i64 %17
  %19 = getelementptr inbounds nuw i8, ptr %18, i64 16
  store i64 10, ptr %19, align 8, !tbaa !200
  %20 = tail call noundef nonnull align 8 dereferenceable(8) ptr @_ZSt16__ostream_insertIcSt11char_traitsIcEERSt13basic_ostreamIT_T0_ES6_PKS3_l(ptr noundef nonnull align 8 dereferenceable(8) %1, ptr noundef nonnull @.str.43, i64 noundef 4)
  %21 = getelementptr inbounds nuw i8, ptr %0, i64 1640
  %22 = load i8, ptr %21, align 8, !tbaa !125, !range !168, !noundef !169
  %23 = trunc nuw i8 %22 to i1
  br i1 %23, label %24, label %31

24:                                               ; preds = %2
  %25 = load ptr, ptr %1, align 8, !tbaa !32
  %26 = getelementptr i8, ptr %25, i64 -24
  %27 = load i64, ptr %26, align 8
  %28 = getelementptr inbounds i8, ptr %1, i64 %27
  %29 = getelementptr inbounds nuw i8, ptr %28, i64 16
  store i64 10, ptr %29, align 8, !tbaa !200
  %30 = tail call noundef nonnull align 8 dereferenceable(8) ptr @_ZSt16__ostream_insertIcSt11char_traitsIcEERSt13basic_ostreamIT_T0_ES6_PKS3_l(ptr noundef nonnull align 8 dereferenceable(8) %1, ptr noundef nonnull @.str.44, i64 noundef 5)
  br label %31

31:                                               ; preds = %24, %2
  %32 = load ptr, ptr %1, align 8, !tbaa !32
  %33 = getelementptr i8, ptr %32, i64 -24
  %34 = load i64, ptr %33, align 8
  %35 = getelementptr inbounds i8, ptr %1, i64 %34
  %36 = getelementptr inbounds nuw i8, ptr %35, i64 240
  %37 = load ptr, ptr %36, align 8, !tbaa !216
  %.not.i.i.i = icmp eq ptr %37, null
  br i1 %.not.i.i.i, label %38, label %_ZSt13__check_facetISt5ctypeIcEERKT_PS3_.exit.i.i

38:                                               ; preds = %31
  tail call void @_ZSt16__throw_bad_castv() #25
  unreachable

_ZSt13__check_facetISt5ctypeIcEERKT_PS3_.exit.i.i: ; preds = %31
  %39 = getelementptr inbounds nuw i8, ptr %37, i64 56
  %40 = load i8, ptr %39, align 8, !tbaa !217
  %.not.i1.i.i = icmp eq i8 %40, 0
  br i1 %.not.i1.i.i, label %44, label %41

41:                                               ; preds = %_ZSt13__check_facetISt5ctypeIcEERKT_PS3_.exit.i.i
  %42 = getelementptr inbounds nuw i8, ptr %37, i64 67
  %43 = load i8, ptr %42, align 1, !tbaa !13
  br label %_ZSt4endlIcSt11char_traitsIcEERSt13basic_ostreamIT_T0_ES6_.exit

44:                                               ; preds = %_ZSt13__check_facetISt5ctypeIcEERKT_PS3_.exit.i.i
  tail call void @_ZNKSt5ctypeIcE13_M_widen_initEv(ptr noundef nonnull align 8 dereferenceable(570) %37)
  %45 = load ptr, ptr %37, align 8, !tbaa !32
  %46 = getelementptr inbounds nuw i8, ptr %45, i64 48
  %47 = load ptr, ptr %46, align 8
  %48 = tail call noundef signext i8 %47(ptr noundef nonnull align 8 dereferenceable(570) %37, i8 noundef signext 10)
  br label %_ZSt4endlIcSt11char_traitsIcEERSt13basic_ostreamIT_T0_ES6_.exit

_ZSt4endlIcSt11char_traitsIcEERSt13basic_ostreamIT_T0_ES6_.exit: ; preds = %41, %44
  %.0.i.i.i = phi i8 [ %43, %41 ], [ %48, %44 ]
  %49 = tail call noundef nonnull align 8 dereferenceable(8) ptr @_ZNSo3putEc(ptr noundef nonnull align 8 dereferenceable(8) %1, i8 noundef signext %.0.i.i.i)
  %50 = tail call noundef nonnull align 8 dereferenceable(8) ptr @_ZNSo5flushEv(ptr noundef nonnull align 8 dereferenceable(8) %49)
  %51 = load ptr, ptr %1, align 8, !tbaa !32
  %52 = getelementptr i8, ptr %51, i64 -24
  %53 = load i64, ptr %52, align 8
  %54 = getelementptr inbounds i8, ptr %1, i64 %53
  %55 = getelementptr inbounds nuw i8, ptr %54, i64 24
  %56 = load i32, ptr %55, align 4, !tbaa !235
  %57 = and i32 %56, -261
  store i32 %57, ptr %55, align 4, !tbaa !235
  ret void
}